; Function Attrs: nofree nosync nounwind memory(readwrite, inaccessiblemem: none) uwtable
define i32 @Gia_ManCountMark0Dfs_rec(ptr noundef %0, i32 noundef %1) local_unnamed_addr #14 {
  %3 = getelementptr i8, ptr %0, i64 176
  %.val19 = load i32, ptr %3, align 8
  %4 = getelementptr i8, ptr %0, i64 616
  %.val20 = load ptr, ptr %4, align 8
  %5 = sext i32 %1 to i64
  %6 = getelementptr inbounds i32, ptr %.val20, i64 %5
  %7 = load i32, ptr %6, align 4
  %.not = icmp eq i32 %7, %.val19
  br i1 %.not, label %common.ret24, label %8

8:                                                ; preds = %2
  store i32 %.val19, ptr %6, align 4
  %9 = getelementptr i8, ptr %0, i64 32
  %.val = load ptr, ptr %9, align 8
  %10 = getelementptr inbounds %struct.Gia_Obj_t_, ptr %.val, i64 %5
  %.val16 = load i64, ptr %10, align 4
  %11 = and i64 %.val16, 2147483648
  %.not.i = icmp ne i64 %11, 0
  %12 = and i64 %.val16, 536870911
  %13 = icmp eq i64 %12, 536870911
  %narrow.i.not = or i1 %.not.i, %13
  %14 = trunc i64 %.val16 to i32
  br i1 %narrow.i.not, label %15, label %18

15:                                               ; preds = %8
  %16 = lshr i32 %14, 30
  %17 = and i32 %16, 1
  br label %common.ret24

common.ret24:                                     ; preds = %2, %15, %18
  %common.ret24.op = phi i32 [ %32, %18 ], [ %17, %15 ], [ 0, %2 ]
  ret i32 %common.ret24.op

18:                                               ; preds = %8
  %19 = and i32 %14, 536870911
  %20 = sub nsw i32 %1, %19
  %21 = tail call i32 @Gia_ManCountMark0Dfs_rec(ptr noundef nonnull %0, i32 noundef %20)
  %.val18 = load i64, ptr %10, align 4
  %22 = lshr i64 %.val18, 32
  %23 = trunc nuw i64 %22 to i32
  %24 = and i32 %23, 536870911
  %25 = sub nsw i32 %1, %24
  %26 = tail call i32 @Gia_ManCountMark0Dfs_rec(ptr noundef nonnull %0, i32 noundef %25)
  %27 = add nsw i32 %26, %21
  %28 = load i64, ptr %10, align 4
  %29 = trunc i64 %28 to i32
  %30 = lshr i32 %29, 30
  %31 = and i32 %30, 1
  %32 = add nsw i32 %27, %31
  br label %common.ret24
}